target datalayout = "e-m:e-p270:32:32-p271:32:32-p272:64:64-i64:64-i128:128-f80:128-n8:16:32:64-S128"
target triple = "x86_64-pc-linux-gnu"

%struct.Vec_Int_t_ = type { i32, i32, ptr }
%struct.Abc_Ntk_t_ = type { i32, i32, ptr, ptr, ptr, ptr, ptr, ptr, ptr, ptr, ptr, ptr, ptr, [11 x i32], i32, i32, i32, i32, ptr, i32, ptr, ptr, i32, i32, i32, double, i32, %struct.Vec_Int_t_, ptr, ptr, ptr, ptr, ptr, float, i32, ptr, ptr, ptr, ptr, ptr, ptr, ptr, ptr, ptr, ptr, ptr, ptr, ptr, ptr, ptr, ptr, ptr, ptr, ptr, ptr, ptr, ptr }
%struct.Vec_Ptr_t_ = type { i32, i32, ptr }

@stdout = external global ptr, align 8
@.str.9 = private unnamed_addr constant [2 x i8] c"w\00", align 1
@.str.10 = private unnamed_addr constant [45 x i8] c"Io_WritePla(): Cannot open the output file.\0A\00", align 1
@.str.11 = private unnamed_addr constant [39 x i8] c"# Benchmark \22%s\22 written by ABC on %s\0A\00", align 1
@.str.21 = private unnamed_addr constant [56 x i8] c"Cannot write multi-output PLA for more than 16 inputs.\0A\00", align 1

; Function Attrs: inlinehint nounwind uwtable
define internal i32 @Vec_PtrSize(ptr noundef %0) #2 {
  %2 = alloca ptr, align 8
  store ptr %0, ptr %2, align 8, !tbaa !58
  %3 = load ptr, ptr %2, align 8, !tbaa !58
  %4 = getelementptr inbounds nuw %struct.Vec_Ptr_t_, ptr %3, i32 0, i32 1
  %5 = load i32, ptr %4, align 4, !tbaa !73
  ret i32 %5
}

; Function Attrs: inlinehint nounwind uwtable
define internal i32 @Abc_NtkCiNum(ptr noundef %0) #2 {
  %2 = alloca ptr, align 8
  store ptr %0, ptr %2, align 8, !tbaa !8
  %3 = load ptr, ptr %2, align 8, !tbaa !8
  %4 = getelementptr inbounds nuw %struct.Abc_Ntk_t_, ptr %3, i32 0, i32 8
  %5 = load ptr, ptr %4, align 8, !tbaa !51
  %6 = call i32 @Vec_PtrSize(ptr noundef %5)
  ret i32 %6
}

; Function Attrs: nounwind uwtable
define i32 @Io_WriteMoPla(ptr noundef %0, ptr noundef %1) #0 {
  %3 = alloca i32, align 4
  %4 = alloca ptr, align 8
  %5 = alloca ptr, align 8
  %6 = alloca ptr, align 8
  %7 = alloca i32, align 4
  store ptr %0, ptr %4, align 8, !tbaa !8
  store ptr %1, ptr %5, align 8, !tbaa !17
  call void @llvm.lifetime.start.p0(i64 8, ptr %6) #9
  %8 = load ptr, ptr %4, align 8, !tbaa !8
  %9 = call i32 @Abc_NtkCiNum(ptr noundef %8)
  %10 = icmp sgt i32 %9, 16
  br i1 %10, label %11, label %13

11:                                               ; preds = %2
  %12 = call i32 (ptr, ...) @printf(ptr noundef @.str.21)
  store i32 0, ptr %3, align 4
  store i32 1, ptr %7, align 4
  br label %33

13:                                               ; preds = %2
  %14 = load ptr, ptr %5, align 8, !tbaa !17
  %15 = call noalias ptr @fopen(ptr noundef %14, ptr noundef @.str.9)
  store ptr %15, ptr %6, align 8, !tbaa !3
  %16 = load ptr, ptr %6, align 8, !tbaa !3
  %17 = icmp eq ptr %16, null
  br i1 %17, label %18, label %21

18:                                               ; preds = %13
  %19 = load ptr, ptr @stdout, align 8, !tbaa !3
  %20 = call i32 (ptr, ptr, ...) @fprintf(ptr noundef %19, ptr noundef @.str.10) #9
  store i32 0, ptr %3, align 4
  store i32 1, ptr %7, align 4
  br label %33

21:                                               ; preds = %13
  %22 = load ptr, ptr %6, align 8, !tbaa !3
  %23 = load ptr, ptr %4, align 8, !tbaa !8
  %24 = getelementptr inbounds nuw %struct.Abc_Ntk_t_, ptr %23, i32 0, i32 2
  %25 = load ptr, ptr %24, align 8, !tbaa !54
  %26 = call ptr (...) @Extra_TimeStamp()
  %27 = call i32 (ptr, ptr, ...) @fprintf(ptr noundef %22, ptr noundef @.str.11, ptr noundef %25, ptr noundef %26) #9
  %28 = load ptr, ptr %6, align 8, !tbaa !3
  %29 = load ptr, ptr %4, align 8, !tbaa !8
  %30 = call i32 @Io_WriteMoPlaOne(ptr noundef %28, ptr noundef %29)
  %31 = load ptr, ptr %6, align 8, !tbaa !3
  %32 = call i32 @fclose(ptr noundef %31)
  store i32 1, ptr %3, align 4
  store i32 1, ptr %7, align 4
  br label %33

33:                                               ; preds = %21, %18, %11
  call void @llvm.lifetime.end.p0(i64 8, ptr %6) #9
  %34 = load i32, ptr %3, align 4
  ret i32 %34
}