; Function Attrs: nounwind uwtable
define range(i32 0, 2) i32 @Io_WriteMoPla(ptr noundef %0, ptr noundef readonly captures(none) %1) local_unnamed_addr #0 {
  %3 = getelementptr i8, ptr %0, i64 56
  %.val = load ptr, ptr %3, align 8, !tbaa !38
  %4 = getelementptr i8, ptr %.val, i64 4
  %.val.val = load i32, ptr %4, align 4, !tbaa !24
  %5 = icmp sgt i32 %.val.val, 16
  br i1 %5, label %6, label %7

6:                                                ; preds = %2
  %puts = tail call i32 @puts(ptr nonnull dereferenceable(1) @str.1)
  br label %20

7:                                                ; preds = %2
  %8 = tail call noalias ptr @fopen(ptr noundef %1, ptr noundef nonnull @.str.9)
  %9 = icmp eq ptr %8, null
  br i1 %9, label %10, label %13

10:                                               ; preds = %7
  %11 = load ptr, ptr @stdout, align 8, !tbaa !43
  %12 = tail call i64 @fwrite(ptr nonnull @.str.10, i64 44, i64 1, ptr %11)
  br label %20

13:                                               ; preds = %7
  %14 = getelementptr inbounds nuw i8, ptr %0, i64 8
  %15 = load ptr, ptr %14, align 8, !tbaa !51
  %16 = tail call ptr (...) @Extra_TimeStamp() #11
  %17 = tail call i32 (ptr, ptr, ...) @fprintf(ptr noundef nonnull %8, ptr noundef nonnull @.str.11, ptr noundef %15, ptr noundef %16) #11
  %18 = tail call i32 @Io_WriteMoPlaOne(ptr noundef nonnull %8, ptr noundef nonnull %0)
  %19 = tail call i32 @fclose(ptr noundef nonnull %8)
  br label %20

20:                                               ; preds = %13, %10, %6
  %.0 = phi i32 [ 0, %6 ], [ 0, %10 ], [ 1, %13 ]
  ret i32 %.0
}